(lp0
(I45
I86
tp1
a(I47
I49
tp2
a(I47
I88
tp3
a(I49
I90
tp4
a(I51
I53
tp5
a(I51
I92
tp6
a(I53
I94
tp7
a(I55
I57
tp8
a(I55
I96
tp9
a(I57
I98
tp10
a(I59
I61
tp11
a(I59
I100
tp12
a(I86
I87
tp13
a(I86
I88
tp14
a(I87
I128
tp15
a(I88
I89
tp16
a(I89
I130
tp17
a(I90
I92
tp18
a(I94
I96
tp19
a(I98
I100
tp20
a(I100
I101
tp21
a(I101
I103
tp22
a(I101
I142
tp23
a(I128
I129
tp24
a(I128
I130
tp25
a(I129
I170
tp26
a(I130
I131
tp27
a(I131
I172
tp28
a(I142
I143
tp29
a(I143
I184
tp30
a(I152
I153
tp31
a(I152
I154
tp32
a(I153
I194
tp33
a(I154
I155
tp34
a(I155
I157
tp35
a(I155
I196
tp36
a(I156
I157
tp37
a(I157
I198
tp38
a(I170
I171
tp39
a(I170
I172
tp40
a(I171
I212
tp41
a(I172
I173
tp42
a(I173
I175
tp43
a(I173
I214
tp44
a(I175
I216
tp45
a(I177
I179
tp46
a(I177
I218
tp47
a(I179
I220
tp48
a(I181
I183
tp49
a(I181
I222
tp50
a(I183
I224
tp51
a(I184
I185
tp52
a(I185
I187
tp53
a(I185
I226
tp54
a(I187
I228
tp55
a(I194
I195
tp56
a(I194
I196
tp57
a(I195
I236
tp58
a(I196
I197
tp59
a(I197
I199
tp60
a(I197
I238
tp61
a(I198
I199
tp62
a(I198
I200
tp63
a(I200
I201
tp64
a(I201
I203
tp65
a(I203
I244
tp66
a(I212
I213
tp67
a(I212
I214
tp68
a(I214
I215
tp69
a(I215
I217
tp70
a(I216
I217
tp71
a(I216
I218
tp72
a(I217
I258
tp73
a(I220
I222
tp74
a(I224
I226
tp75
a(I226
I227
tp76
a(I227
I229
tp77
a(I228
I229
tp78
a(I228
I230
tp79
a(I229
I270
tp80
a(I230
I231
tp81
a(I231
I233
tp82
a(I231
I272
tp83
a(I232
I233
tp84
a(I232
I234
tp85
a(I233
I274
tp86
a(I234
I235
tp87
a(I235
I237
tp88
a(I235
I276
tp89
a(I236
I237
tp90
a(I236
I238
tp91
a(I237
I278
tp92
a(I258
I259
tp93
a(I259
I300
tp94
a(I261
I263
tp95
a(I261
I302
tp96
a(I263
I304
tp97
a(I265
I267
tp98
a(I265
I306
tp99
a(I267
I308
tp100
a(I269
I271
tp101
a(I269
I310
tp102
a(I270
I271
tp103
a(I270
I272
tp104
a(I271
I312
tp105
a(I272
I273
tp106
a(I273
I275
tp107
a(I273
I314
tp108
a(I274
I275
tp109
a(I274
I276
tp110
a(I275
I316
tp111
a(I276
I277
tp112
a(I277
I279
tp113
a(I277
I318
tp114
a(I278
I279
tp115
a(I288
I289
tp116
a(I289
I330
tp117
a(I300
I301
tp118
a(I300
I302
tp119
a(I301
I342
tp120
a(I304
I306
tp121
a(I308
I310
tp122
a(I312
I313
tp123
a(I312
I314
tp124
a(I313
I354
tp125
a(I314
I315
tp126
a(I315
I317
tp127
a(I315
I356
tp128
a(I316
I317
tp129
a(I316
I318
tp130
a(I317
I358
tp131
a(I318
I319
tp132
a(I319
I321
tp133
a(I319
I360
tp134
a(I321
I362
tp135
a(I330
I331
tp136
a(I331
I372
tp137
a(I339
I380
tp138
a(I341
I343
tp139
a(I341
I382
tp140
a(I342
I343
tp141
a(I343
I384
tp142
a(I354
I355
tp143
a(I354
I356
tp144
a(I355
I396
tp145
a(I356
I357
tp146
a(I357
I359
tp147
a(I357
I398
tp148
a(I358
I359
tp149
a(I358
I360
tp150
a(I359
I400
tp151
a(I360
I361
tp152
a(I361
I363
tp153
a(I361
I402
tp154
a(I362
I363
tp155
a(I363
I404
tp156
a(I370
I371
tp157
a(I370
I372
tp158
a(I371
I412
tp159
a(I372
I373
tp160
a(I373
I414
tp161
a(I380
I381
tp162
a(I380
I382
tp163
a(I382
I383
tp164
a(I383
I385
tp165
a(I384
I385
tp166
a(I396
I397
tp167
a(I396
I398
tp168
a(I398
I399
tp169
a(I399
I401
tp170
a(I400
I401
tp171
a(I400
I402
tp172
a(I402
I403
tp173
a(I403
I405
tp174
a(I404
I405
tp175
a(I404
I406
tp176
a(I406
I407
tp177
a(I407
I409
tp178
a(I408
I409
tp179
a(I408
I410
tp180
a(I410
I411
tp181
a(I411
I413
tp182
a(I412
I413
tp183
a(I412
I414
tp184
a(I414
I415
tp185
a.