(lp0
(I45
F0.174419
F0.201401
tp1
a(I47
F2.5
F0.201401
tp2
a(I49
F3.66279
F0.201401
tp3
a(I51
F5.98837
F0.201401
tp4
a(I53
F7.15116
F0.201401
tp5
a(I55
F9.47674
F0.201401
tp6
a(I57
F10.6395
F0.201401
tp7
a(I59
F12.9651
F0.201401
tp8
a(I61
F14.1279
F0.201401
tp9
a(I86
F0.755814
F1.20841
tp10
a(I87
F0.174419
F2.21541
tp11
a(I88
F1.9186
F1.20841
tp12
a(I89
F2.5
F2.21541
tp13
a(I90
F4.24419
F1.20841
tp14
a(I92
F5.40698
F1.20841
tp15
a(I94
F7.73256
F1.20841
tp16
a(I96
F8.89535
F1.20841
tp17
a(I98
F11.2209
F1.20841
tp18
a(I100
F12.3837
F1.20841
tp19
a(I101
F12.9651
F2.21541
tp20
a(I103
F14.1279
F2.21541
tp21
a(I128
F0.755814
F3.22242
tp22
a(I129
F0.174419
F4.22943
tp23
a(I130
F1.9186
F3.22242
tp24
a(I131
F2.5
F4.22943
tp25
a(I142
F12.3837
F3.22242
tp26
a(I143
F12.9651
F4.22943
tp27
a(I152
F21.686
F3.22242
tp28
a(I153
F21.1047
F4.22943
tp29
a(I154
F22.8488
F3.22242
tp30
a(I155
F23.4302
F4.22943
tp31
a(I156
F25.1744
F3.22242
tp32
a(I157
F24.593
F4.22943
tp33
a(I170
F0.755814
F5.23643
tp34
a(I171
F0.174419
F6.24344
tp35
a(I172
F1.9186
F5.23643
tp36
a(I173
F2.5
F6.24344
tp37
a(I175
F3.66279
F6.24344
tp38
a(I177
F5.98837
F6.24344
tp39
a(I179
F7.15116
F6.24344
tp40
a(I181
F9.47674
F6.24344
tp41
a(I183
F10.6395
F6.24344
tp42
a(I184
F12.3837
F5.23643
tp43
a(I185
F12.9651
F6.24344
tp44
a(I187
F14.1279
F6.24344
tp45
a(I194
F21.686
F5.23643
tp46
a(I195
F21.1047
F6.24344
tp47
a(I196
F22.8488
F5.23643
tp48
a(I197
F23.4302
F6.24344
tp49
a(I198
F25.1744
F5.23643
tp50
a(I199
F24.593
F6.24344
tp51
a(I200
F26.3372
F5.23643
tp52
a(I201
F26.9186
F6.24344
tp53
a(I203
F28.0814
F6.24344
tp54
a(I212
F0.755814
F7.25045
tp55
a(I213
F0.174419
F8.25745
tp56
a(I214
F1.9186
F7.25045
tp57
a(I215
F2.5
F8.25745
tp58
a(I216
F4.24419
F7.25045
tp59
a(I217
F3.66279
F8.25745
tp60
a(I218
F5.40698
F7.25045
tp61
a(I220
F7.73256
F7.25045
tp62
a(I222
F8.89535
F7.25045
tp63
a(I224
F11.2209
F7.25045
tp64
a(I226
F12.3837
F7.25045
tp65
a(I227
F12.9651
F8.25745
tp66
a(I228
F14.7093
F7.25045
tp67
a(I229
F14.1279
F8.25745
tp68
a(I230
F15.8721
F7.25045
tp69
a(I231
F16.4535
F8.25745
tp70
a(I232
F18.1977
F7.25045
tp71
a(I233
F17.6163
F8.25745
tp72
a(I234
F19.3605
F7.25045
tp73
a(I235
F19.9419
F8.25745
tp74
a(I236
F21.686
F7.25045
tp75
a(I237
F21.1047
F8.25745
tp76
a(I238
F22.8488
F7.25045
tp77
a(I244
F28.6628
F7.25045
tp78
a(I258
F4.24419
F9.26446
tp79
a(I259
F3.66279
F10.2715
tp80
a(I261
F5.98837
F10.2715
tp81
a(I263
F7.15116
F10.2715
tp82
a(I265
F9.47674
F10.2715
tp83
a(I267
F10.6395
F10.2715
tp84
a(I269
F12.9651
F10.2715
tp85
a(I270
F14.7093
F9.26446
tp86
a(I271
F14.1279
F10.2715
tp87
a(I272
F15.8721
F9.26446
tp88
a(I273
F16.4535
F10.2715
tp89
a(I274
F18.1977
F9.26446
tp90
a(I275
F17.6163
F10.2715
tp91
a(I276
F19.3605
F9.26446
tp92
a(I277
F19.9419
F10.2715
tp93
a(I278
F21.686
F9.26446
tp94
a(I279
F21.1047
F10.2715
tp95
a(I288
F29.8256
F9.26446
tp96
a(I289
F30.407
F10.2715
tp97
a(I300
F4.24419
F11.2785
tp98
a(I301
F3.66279
F12.2855
tp99
a(I302
F5.40698
F11.2785
tp100
a(I304
F7.73256
F11.2785
tp101
a(I306
F8.89535
F11.2785
tp102
a(I308
F11.2209
F11.2785
tp103
a(I310
F12.3837
F11.2785
tp104
a(I312
F14.7093
F11.2785
tp105
a(I313
F14.1279
F12.2855
tp106
a(I314
F15.8721
F11.2785
tp107
a(I315
F16.4535
F12.2855
tp108
a(I316
F18.1977
F11.2785
tp109
a(I317
F17.6163
F12.2855
tp110
a(I318
F19.3605
F11.2785
tp111
a(I319
F19.9419
F12.2855
tp112
a(I321
F21.1047
F12.2855
tp113
a(I330
F29.8256
F11.2785
tp114
a(I331
F30.407
F12.2855
tp115
a(I339
F0.174419
F14.2995
tp116
a(I341
F2.5
F14.2995
tp117
a(I342
F4.24419
F13.2925
tp118
a(I343
F3.66279
F14.2995
tp119
a(I354
F14.7093
F13.2925
tp120
a(I355
F14.1279
F14.2995
tp121
a(I356
F15.8721
F13.2925
tp122
a(I357
F16.4535
F14.2995
tp123
a(I358
F18.1977
F13.2925
tp124
a(I359
F17.6163
F14.2995
tp125
a(I360
F19.3605
F13.2925
tp126
a(I361
F19.9419
F14.2995
tp127
a(I362
F21.686
F13.2925
tp128
a(I363
F21.1047
F14.2995
tp129
a(I370
F28.6628
F13.2925
tp130
a(I371
F28.0814
F14.2995
tp131
a(I372
F29.8256
F13.2925
tp132
a(I373
F30.407
F14.2995
tp133
a(I380
F0.755814
F15.3065
tp134
a(I381
F0.174419
F16.3135
tp135
a(I382
F1.9186
F15.3065
tp136
a(I383
F2.5
F16.3135
tp137
a(I384
F4.24419
F15.3065
tp138
a(I385
F3.66279
F16.3135
tp139
a(I396
F14.7093
F15.3065
tp140
a(I397
F14.1279
F16.3135
tp141
a(I398
F15.8721
F15.3065
tp142
a(I399
F16.4535
F16.3135
tp143
a(I400
F18.1977
F15.3065
tp144
a(I401
F17.6163
F16.3135
tp145
a(I402
F19.3605
F15.3065
tp146
a(I403
F19.9419
F16.3135
tp147
a(I404
F21.686
F15.3065
tp148
a(I405
F21.1047
F16.3135
tp149
a(I406
F22.8488
F15.3065
tp150
a(I407
F23.4302
F16.3135
tp151
a(I408
F25.1744
F15.3065
tp152
a(I409
F24.593
F16.3135
tp153
a(I410
F26.3372
F15.3065
tp154
a(I411
F26.9186
F16.3135
tp155
a(I412
F28.6628
F15.3065
tp156
a(I413
F28.0814
F16.3135
tp157
a(I414
F29.8256
F15.3065
tp158
a(I415
F30.407
F16.3135
tp159
a.